; ModuleID = '23/1190.c'
source_filename = "23/1190.c"
target datalayout = "e-m:e-p270:32:32-p271:32:32-p272:64:64-i64:64-f80:128-n8:16:32:64-S128"
target triple = "x86_64-pc-linux-gnu"

@.str = private unnamed_addr constant [3 x i8] c"%c\00", align 1

; Function Attrs: noinline nounwind uwtable
define dso_local i32 @main() #0 {
  %1 = alloca i32, align 4
  %2 = alloca [50 x [100 x i8]], align 16
  %3 = alloca [100 x i32], align 16
  %4 = alloca i32, align 4
  %5 = alloca i32, align 4
  %6 = alloca i32, align 4
  store i32 0, i32* %1, align 4
  store i32 0, i32* %6, align 4
  store i32 0, i32* %4, align 4
  br label %7

7:                                                ; preds = %72, %0
  %8 = load i32, i32* %4, align 4
  %9 = icmp sle i32 %8, 50
  br i1 %9, label %10, label %75

10:                                               ; preds = %7
  %11 = load i32, i32* %4, align 4
  %12 = sext i32 %11 to i64
  %13 = getelementptr inbounds [100 x i32], [100 x i32]* %3, i64 0, i64 %12
  store i32 0, i32* %13, align 4
  store i32 0, i32* %5, align 4
  br label %14

14:                                               ; preds = %55, %10
  %15 = load i32, i32* %5, align 4
  %16 = icmp sle i32 %15, 100
  br i1 %16, label %17, label %58

17:                                               ; preds = %14
  %18 = call i32 @getchar()
  %19 = trunc i32 %18 to i8
  %20 = load i32, i32* %4, align 4
  %21 = sext i32 %20 to i64
  %22 = getelementptr inbounds [50 x [100 x i8]], [50 x [100 x i8]]* %2, i64 0, i64 %21
  %23 = load i32, i32* %5, align 4
  %24 = sext i32 %23 to i64
  %25 = getelementptr inbounds [100 x i8], [100 x i8]* %22, i64 0, i64 %24
  store i8 %19, i8* %25, align 1
  %26 = load i32, i32* %4, align 4
  %27 = sext i32 %26 to i64
  %28 = getelementptr inbounds [50 x [100 x i8]], [50 x [100 x i8]]* %2, i64 0, i64 %27
  %29 = load i32, i32* %5, align 4
  %30 = sext i32 %29 to i64
  %31 = getelementptr inbounds [100 x i8], [100 x i8]* %28, i64 0, i64 %30
  %32 = load i8, i8* %31, align 1
  %33 = sext i8 %32 to i32
  %34 = icmp sgt i32 %33, 122
  br i1 %34, label %45, label %35

35:                                               ; preds = %17
  %36 = load i32, i32* %4, align 4
  %37 = sext i32 %36 to i64
  %38 = getelementptr inbounds [50 x [100 x i8]], [50 x [100 x i8]]* %2, i64 0, i64 %37
  %39 = load i32, i32* %5, align 4
  %40 = sext i32 %39 to i64
  %41 = getelementptr inbounds [100 x i8], [100 x i8]* %38, i64 0, i64 %40
  %42 = load i8, i8* %41, align 1
  %43 = sext i8 %42 to i32
  %44 = icmp slt i32 %43, 65
  br i1 %44, label %45, label %46

45:                                               ; preds = %35, %17
  br label %58

46:                                               ; preds = %35
  %47 = load i32, i32* %4, align 4
  %48 = sext i32 %47 to i64
  %49 = getelementptr inbounds [100 x i32], [100 x i32]* %3, i64 0, i64 %48
  %50 = load i32, i32* %49, align 4
  %51 = add nsw i32 %50, 1
  %52 = load i32, i32* %4, align 4
  %53 = sext i32 %52 to i64
  %54 = getelementptr inbounds [100 x i32], [100 x i32]* %3, i64 0, i64 %53
  store i32 %51, i32* %54, align 4
  br label %55

55:                                               ; preds = %46
  %56 = load i32, i32* %5, align 4
  %57 = add nsw i32 %56, 1
  store i32 %57, i32* %5, align 4
  br label %14

58:                                               ; preds = %45, %14
  %59 = load i32, i32* %4, align 4
  %60 = sext i32 %59 to i64
  %61 = getelementptr inbounds [50 x [100 x i8]], [50 x [100 x i8]]* %2, i64 0, i64 %60
  %62 = load i32, i32* %5, align 4
  %63 = sext i32 %62 to i64
  %64 = getelementptr inbounds [100 x i8], [100 x i8]* %61, i64 0, i64 %63
  %65 = load i8, i8* %64, align 1
  %66 = sext i8 %65 to i32
  %67 = icmp eq i32 %66, 10
  br i1 %67, label %68, label %69

68:                                               ; preds = %58
  br label %75

69:                                               ; preds = %58
  %70 = load i32, i32* %6, align 4
  %71 = add nsw i32 %70, 1
  store i32 %71, i32* %6, align 4
  br label %72

72:                                               ; preds = %69
  %73 = load i32, i32* %4, align 4
  %74 = add nsw i32 %73, 1
  store i32 %74, i32* %4, align 4
  br label %7

75:                                               ; preds = %68, %7
  %76 = load i32, i32* %6, align 4
  %77 = sext i32 %76 to i64
  %78 = getelementptr inbounds [50 x [100 x i8]], [50 x [100 x i8]]* %2, i64 0, i64 %77
  %79 = load i32, i32* %4, align 4
  %80 = sext i32 %79 to i64
  %81 = getelementptr inbounds [100 x i32], [100 x i32]* %3, i64 0, i64 %80
  %82 = load i32, i32* %81, align 4
  %83 = sext i32 %82 to i64
  %84 = getelementptr inbounds [100 x i8], [100 x i8]* %78, i64 0, i64 %83
  store i8 32, i8* %84, align 1
  %85 = load i32, i32* %6, align 4
  store i32 %85, i32* %4, align 4
  br label %86

86:                                               ; preds = %111, %75
  %87 = load i32, i32* %4, align 4
  %88 = icmp sgt i32 %87, 0
  br i1 %88, label %89, label %114

89:                                               ; preds = %86
  store i32 0, i32* %5, align 4
  br label %90

90:                                               ; preds = %107, %89
  %91 = load i32, i32* %5, align 4
  %92 = load i32, i32* %4, align 4
  %93 = sext i32 %92 to i64
  %94 = getelementptr inbounds [100 x i32], [100 x i32]* %3, i64 0, i64 %93
  %95 = load i32, i32* %94, align 4
  %96 = icmp sle i32 %91, %95
  br i1 %96, label %97, label %110

97:                                               ; preds = %90
  %98 = load i32, i32* %4, align 4
  %99 = sext i32 %98 to i64
  %100 = getelementptr inbounds [50 x [100 x i8]], [50 x [100 x i8]]* %2, i64 0, i64 %99
  %101 = load i32, i32* %5, align 4
  %102 = sext i32 %101 to i64
  %103 = getelementptr inbounds [100 x i8], [100 x i8]* %100, i64 0, i64 %102
  %104 = load i8, i8* %103, align 1
  %105 = sext i8 %104 to i32
  %106 = call i32 (i8*, ...) @printf(i8* getelementptr inbounds ([3 x i8], [3 x i8]* @.str, i64 0, i64 0), i32 %105)
  br label %107

107:                                              ; preds = %97
  %108 = load i32, i32* %5, align 4
  %109 = add nsw i32 %108, 1
  store i32 %109, i32* %5, align 4
  br label %90

110:                                              ; preds = %90
  br label %111

111:                                              ; preds = %110
  %112 = load i32, i32* %4, align 4
  %113 = add nsw i32 %112, -1
  store i32 %113, i32* %4, align 4
  br label %86

114:                                              ; preds = %86
  store i32 0, i32* %4, align 4
  store i32 0, i32* %5, align 4
  br label %115

115:                                              ; preds = %133, %114
  %116 = load i32, i32* %5, align 4
  %117 = load i32, i32* %4, align 4
  %118 = sext i32 %117 to i64
  %119 = getelementptr inbounds [100 x i32], [100 x i32]* %3, i64 0, i64 %118
  %120 = load i32, i32* %119, align 4
  %121 = sub nsw i32 %120, 1
  %122 = icmp sle i32 %116, %121
  br i1 %122, label %123, label %136

123:                                              ; preds = %115
  %124 = load i32, i32* %4, align 4
  %125 = sext i32 %124 to i64
  %126 = getelementptr inbounds [50 x [100 x i8]], [50 x [100 x i8]]* %2, i64 0, i64 %125
  %127 = load i32, i32* %5, align 4
  %128 = sext i32 %127 to i64
  %129 = getelementptr inbounds [100 x i8], [100 x i8]* %126, i64 0, i64 %128
  %130 = load i8, i8* %129, align 1
  %131 = sext i8 %130 to i32
  %132 = call i32 (i8*, ...) @printf(i8* getelementptr inbounds ([3 x i8], [3 x i8]* @.str, i64 0, i64 0), i32 %131)
  br label %133

133:                                              ; preds = %123
  %134 = load i32, i32* %5, align 4
  %135 = add nsw i32 %134, 1
  store i32 %135, i32* %5, align 4
  br label %115

136:                                              ; preds = %115
  %137 = load i32, i32* %1, align 4
  ret i32 %137
}

declare dso_local i32 @getchar() #1

declare dso_local i32 @printf(i8*, ...) #1


!llvm.module.flags = !{!0}
!llvm.ident = !{!1}

!0 = !{i32 1, !"wchar_size", i32 4}
!1 = !{!"clang version 10.0.0-4ubuntu1 "}
